; Function Attrs: mustprogress uwtable
define hidden void @_ZNK3smt8qi_queue18collect_statisticsER10statistics(ptr noundef nonnull readonly align 8 captures(none) dereferenceable(1048) %0, ptr noundef nonnull align 8 dereferenceable(16) %1) local_unnamed_addr #4 align 2 {
  %3 = getelementptr inbounds nuw i8, ptr %0, i64 32
  %4 = load i32, ptr %3, align 8, !tbaa !613
  tail call void @_ZN10statistics6updateEPKcj(ptr noundef nonnull align 8 dereferenceable(16) %1, ptr noundef nonnull @.str.38, i32 noundef %4)
  %5 = getelementptr inbounds nuw i8, ptr %0, i64 36
  %6 = load i32, ptr %5, align 4, !tbaa !720
  tail call void @_ZN10statistics6updateEPKcj(ptr noundef nonnull align 8 dereferenceable(16) %1, ptr noundef nonnull @.str.39, i32 noundef %6)
  %7 = getelementptr inbounds nuw i8, ptr %0, i64 1008
  %8 = load ptr, ptr %7, align 8, !tbaa !567
  %9 = icmp eq ptr %8, null
  br i1 %9, label %_ZNK6vectorIN3smt8qi_queue5entryELb0EjE4sizeEv.exit, label %10

10:                                               ; preds = %2
  %11 = getelementptr inbounds i8, ptr %8, i64 -4
  %12 = load i32, ptr %11, align 4, !tbaa !555
  br label %_ZNK6vectorIN3smt8qi_queue5entryELb0EjE4sizeEv.exit

_ZNK6vectorIN3smt8qi_queue5entryELb0EjE4sizeEv.exit: ; preds = %2, %10
  %.0.i = phi i32 [ %12, %10 ], [ 0, %2 ]
  tail call void @_ZN10statistics6updateEPKcj(ptr noundef nonnull align 8 dereferenceable(16) %1, ptr noundef nonnull @.str.40, i32 noundef %.0.i)
  %13 = load ptr, ptr %7, align 8, !tbaa !567
  %14 = icmp eq ptr %13, null
  br i1 %14, label %_ZNK3smt8qi_queue17get_min_max_costsERfS1_.exit, label %.split.i

.split.i:                                         ; preds = %_ZNK6vectorIN3smt8qi_queue5entryELb0EjE4sizeEv.exit
  %15 = getelementptr inbounds i8, ptr %13, i64 -4
  %16 = load i32, ptr %15, align 4, !tbaa !555
  %.not24.i = icmp eq i32 %16, 0
  br i1 %.not24.i, label %_ZNK3smt8qi_queue17get_min_max_costsERfS1_.exit, label %.lr.ph.preheader.i

.lr.ph.preheader.i:                               ; preds = %.split.i
  %wide.trip.count.i = zext i32 %16 to i64
  br label %.lr.ph.i

.lr.ph.i:                                         ; preds = %_ZNK6vectorIN3smt8qi_queue5entryELb0EjE4sizeEv.exit.i, %.lr.ph.preheader.i
  %.09 = phi float [ 0.000000e+00, %.lr.ph.preheader.i ], [ %.110, %_ZNK6vectorIN3smt8qi_queue5entryELb0EjE4sizeEv.exit.i ]
  %.0 = phi float [ 0.000000e+00, %.lr.ph.preheader.i ], [ %.1, %_ZNK6vectorIN3smt8qi_queue5entryELb0EjE4sizeEv.exit.i ]
  %indvars.iv.i = phi i64 [ 0, %.lr.ph.preheader.i ], [ %indvars.iv.next.i, %_ZNK6vectorIN3smt8qi_queue5entryELb0EjE4sizeEv.exit.i ]
  %.01319.i = phi i1 [ false, %.lr.ph.preheader.i ], [ %.2.i, %_ZNK6vectorIN3smt8qi_queue5entryELb0EjE4sizeEv.exit.i ]
  %17 = getelementptr inbounds nuw %"struct.smt::qi_queue::entry", ptr %13, i64 %indvars.iv.i
  %18 = getelementptr inbounds nuw i8, ptr %17, i64 12
  %19 = load i32, ptr %18, align 4
  %.not.i = icmp sgt i32 %19, -1
  br i1 %.not.i, label %20, label %_ZNK6vectorIN3smt8qi_queue5entryELb0EjE4sizeEv.exit.i

20:                                               ; preds = %.lr.ph.i
  %21 = getelementptr inbounds nuw i8, ptr %17, i64 8
  %22 = load float, ptr %21, align 8, !tbaa !619
  br i1 %.01319.i, label %23, label %_ZNK6vectorIN3smt8qi_queue5entryELb0EjE4sizeEv.exit.i

23:                                               ; preds = %20
  %24 = fcmp olt float %22, %.09
  %25 = select i1 %24, float %22, float %.09
  %26 = fcmp olt float %.0, %22
  %storemerge.pre.i = select i1 %26, float %22, float %.0
  br label %_ZNK6vectorIN3smt8qi_queue5entryELb0EjE4sizeEv.exit.i

_ZNK6vectorIN3smt8qi_queue5entryELb0EjE4sizeEv.exit.i: ; preds = %23, %20, %.lr.ph.i
  %.110 = phi float [ %.09, %.lr.ph.i ], [ %25, %23 ], [ %22, %20 ]
  %.1 = phi float [ %.0, %.lr.ph.i ], [ %storemerge.pre.i, %23 ], [ %22, %20 ]
  %.2.i = phi i1 [ %.01319.i, %.lr.ph.i ], [ true, %23 ], [ true, %20 ]
  %indvars.iv.next.i = add nuw nsw i64 %indvars.iv.i, 1
  %exitcond.not.i = icmp eq i64 %indvars.iv.next.i, %wide.trip.count.i
  br i1 %exitcond.not.i, label %_ZNK3smt8qi_queue17get_min_max_costsERfS1_.exit.loopexit, label %.lr.ph.i, !llvm.loop !742

_ZNK3smt8qi_queue17get_min_max_costsERfS1_.exit.loopexit: ; preds = %_ZNK6vectorIN3smt8qi_queue5entryELb0EjE4sizeEv.exit.i
  %27 = fpext float %.110 to double
  %28 = fpext float %.1 to double
  br label %_ZNK3smt8qi_queue17get_min_max_costsERfS1_.exit

_ZNK3smt8qi_queue17get_min_max_costsERfS1_.exit:  ; preds = %_ZNK3smt8qi_queue17get_min_max_costsERfS1_.exit.loopexit, %_ZNK6vectorIN3smt8qi_queue5entryELb0EjE4sizeEv.exit, %.split.i
  %.3 = phi double [ 0.000000e+00, %_ZNK6vectorIN3smt8qi_queue5entryELb0EjE4sizeEv.exit ], [ 0.000000e+00, %.split.i ], [ %27, %_ZNK3smt8qi_queue17get_min_max_costsERfS1_.exit.loopexit ]
  %.2 = phi double [ 0.000000e+00, %_ZNK6vectorIN3smt8qi_queue5entryELb0EjE4sizeEv.exit ], [ 0.000000e+00, %.split.i ], [ %28, %_ZNK3smt8qi_queue17get_min_max_costsERfS1_.exit.loopexit ]
  tail call void @_ZN10statistics6updateEPKcd(ptr noundef nonnull align 8 dereferenceable(16) %1, ptr noundef nonnull @.str.41, double noundef %.3)
  tail call void @_ZN10statistics6updateEPKcd(ptr noundef nonnull align 8 dereferenceable(16) %1, ptr noundef nonnull @.str.42, double noundef %.2)
  ret void
}